; ModuleID = '31/1318.c'
source_filename = "31/1318.c"
target datalayout = "e-m:e-p270:32:32-p271:32:32-p272:64:64-i64:64-f80:128-n8:16:32:64-S128"
target triple = "x86_64-pc-linux-gnu"

%struct.stu = type { [9 x i8], [18 x i8], [2 x i8], i32, float, [12 x i8], %struct.stu* }

@__const.create.end = private unnamed_addr constant [4 x i8] c"end\00", align 1
@.str = private unnamed_addr constant [3 x i8] c"%s\00", align 1
@.str.1 = private unnamed_addr constant [11 x i8] c"%s%s%d%f%s\00", align 1
@.str.2 = private unnamed_addr constant [19 x i8] c"%s %s %s %d %g %s\0A\00", align 1

; Function Attrs: noinline nounwind uwtable
define dso_local %struct.stu* @create() #0 {
  %1 = alloca %struct.stu*, align 8
  %2 = alloca %struct.stu*, align 8
  %3 = alloca %struct.stu*, align 8
  %4 = alloca %struct.stu*, align 8
  %5 = alloca [4 x i8], align 1
  %6 = bitcast [4 x i8]* %5 to i8*
  call void @llvm.memcpy.p0i8.p0i8.i64(i8* align 1 %6, i8* align 1 getelementptr inbounds ([4 x i8], [4 x i8]* @__const.create.end, i32 0, i32 0), i64 4, i1 false)
  %7 = call noalias i8* @malloc(i64 100) #5
  %8 = bitcast i8* %7 to %struct.stu*
  store %struct.stu* %8, %struct.stu** %3, align 8
  %9 = load %struct.stu*, %struct.stu** %3, align 8
  %10 = getelementptr inbounds %struct.stu, %struct.stu* %9, i32 0, i32 0
  %11 = getelementptr inbounds [9 x i8], [9 x i8]* %10, i64 0, i64 0
  %12 = call i32 (i8*, ...) @__isoc99_scanf(i8* getelementptr inbounds ([3 x i8], [3 x i8]* @.str, i64 0, i64 0), i8* %11)
  %13 = load %struct.stu*, %struct.stu** %3, align 8
  %14 = getelementptr inbounds %struct.stu, %struct.stu* %13, i32 0, i32 0
  %15 = getelementptr inbounds [9 x i8], [9 x i8]* %14, i64 0, i64 0
  %16 = getelementptr inbounds [4 x i8], [4 x i8]* %5, i64 0, i64 0
  %17 = call i32 @strcmp(i8* %15, i8* %16) #6
  %18 = icmp eq i32 %17, 0
  br i1 %18, label %19, label %21

19:                                               ; preds = %0
  %20 = load %struct.stu*, %struct.stu** %3, align 8
  store %struct.stu* %20, %struct.stu** %1, align 8
  br label %73

21:                                               ; preds = %0
  %22 = load %struct.stu*, %struct.stu** %3, align 8
  %23 = getelementptr inbounds %struct.stu, %struct.stu* %22, i32 0, i32 1
  %24 = getelementptr inbounds [18 x i8], [18 x i8]* %23, i64 0, i64 0
  %25 = load %struct.stu*, %struct.stu** %3, align 8
  %26 = getelementptr inbounds %struct.stu, %struct.stu* %25, i32 0, i32 2
  %27 = getelementptr inbounds [2 x i8], [2 x i8]* %26, i64 0, i64 0
  %28 = load %struct.stu*, %struct.stu** %3, align 8
  %29 = getelementptr inbounds %struct.stu, %struct.stu* %28, i32 0, i32 3
  %30 = load %struct.stu*, %struct.stu** %3, align 8
  %31 = getelementptr inbounds %struct.stu, %struct.stu* %30, i32 0, i32 4
  %32 = load %struct.stu*, %struct.stu** %3, align 8
  %33 = getelementptr inbounds %struct.stu, %struct.stu* %32, i32 0, i32 5
  %34 = getelementptr inbounds [12 x i8], [12 x i8]* %33, i64 0, i64 0
  %35 = call i32 (i8*, ...) @__isoc99_scanf(i8* getelementptr inbounds ([11 x i8], [11 x i8]* @.str.1, i64 0, i64 0), i8* %24, i8* %27, i32* %29, float* %31, i8* %34)
  %36 = load %struct.stu*, %struct.stu** %3, align 8
  %37 = getelementptr inbounds %struct.stu, %struct.stu* %36, i32 0, i32 6
  store %struct.stu* null, %struct.stu** %37, align 8
  %38 = load %struct.stu*, %struct.stu** %3, align 8
  store %struct.stu* %38, %struct.stu** %4, align 8
  br label %39

39:                                               ; preds = %21, %54
  %40 = call noalias i8* @malloc(i64 100) #5
  %41 = bitcast i8* %40 to %struct.stu*
  store %struct.stu* %41, %struct.stu** %3, align 8
  %42 = load %struct.stu*, %struct.stu** %3, align 8
  %43 = getelementptr inbounds %struct.stu, %struct.stu* %42, i32 0, i32 0
  %44 = getelementptr inbounds [9 x i8], [9 x i8]* %43, i64 0, i64 0
  %45 = call i32 (i8*, ...) @__isoc99_scanf(i8* getelementptr inbounds ([3 x i8], [3 x i8]* @.str, i64 0, i64 0), i8* %44)
  %46 = load %struct.stu*, %struct.stu** %3, align 8
  %47 = getelementptr inbounds %struct.stu, %struct.stu* %46, i32 0, i32 0
  %48 = getelementptr inbounds [9 x i8], [9 x i8]* %47, i64 0, i64 0
  %49 = getelementptr inbounds [4 x i8], [4 x i8]* %5, i64 0, i64 0
  %50 = call i32 @strcmp(i8* %48, i8* %49) #6
  %51 = icmp eq i32 %50, 0
  br i1 %51, label %52, label %54

52:                                               ; preds = %39
  %53 = load %struct.stu*, %struct.stu** %4, align 8
  store %struct.stu* %53, %struct.stu** %1, align 8
  br label %73

54:                                               ; preds = %39
  %55 = load %struct.stu*, %struct.stu** %3, align 8
  %56 = getelementptr inbounds %struct.stu, %struct.stu* %55, i32 0, i32 1
  %57 = getelementptr inbounds [18 x i8], [18 x i8]* %56, i64 0, i64 0
  %58 = load %struct.stu*, %struct.stu** %3, align 8
  %59 = getelementptr inbounds %struct.stu, %struct.stu* %58, i32 0, i32 2
  %60 = getelementptr inbounds [2 x i8], [2 x i8]* %59, i64 0, i64 0
  %61 = load %struct.stu*, %struct.stu** %3, align 8
  %62 = getelementptr inbounds %struct.stu, %struct.stu* %61, i32 0, i32 3
  %63 = load %struct.stu*, %struct.stu** %3, align 8
  %64 = getelementptr inbounds %struct.stu, %struct.stu* %63, i32 0, i32 4
  %65 = load %struct.stu*, %struct.stu** %3, align 8
  %66 = getelementptr inbounds %struct.stu, %struct.stu* %65, i32 0, i32 5
  %67 = getelementptr inbounds [12 x i8], [12 x i8]* %66, i64 0, i64 0
  %68 = call i32 (i8*, ...) @__isoc99_scanf(i8* getelementptr inbounds ([11 x i8], [11 x i8]* @.str.1, i64 0, i64 0), i8* %57, i8* %60, i32* %62, float* %64, i8* %67)
  %69 = load %struct.stu*, %struct.stu** %4, align 8
  %70 = load %struct.stu*, %struct.stu** %3, align 8
  %71 = getelementptr inbounds %struct.stu, %struct.stu* %70, i32 0, i32 6
  store %struct.stu* %69, %struct.stu** %71, align 8
  %72 = load %struct.stu*, %struct.stu** %3, align 8
  store %struct.stu* %72, %struct.stu** %4, align 8
  br label %39

73:                                               ; preds = %52, %19
  %74 = load %struct.stu*, %struct.stu** %1, align 8
  ret %struct.stu* %74
}

; Function Attrs: argmemonly nounwind willreturn
declare void @llvm.memcpy.p0i8.p0i8.i64(i8* noalias nocapture writeonly, i8* noalias nocapture readonly, i64, i1 immarg) #1

; Function Attrs: nounwind
declare dso_local noalias i8* @malloc(i64) #2

declare dso_local i32 @__isoc99_scanf(i8*, ...) #3

; Function Attrs: nounwind readonly
declare dso_local i32 @strcmp(i8*, i8*) #4

; Function Attrs: noinline nounwind uwtable
define dso_local void @print(%struct.stu* %0) #0 {
  %2 = alloca %struct.stu*, align 8
  %3 = alloca %struct.stu*, align 8
  store %struct.stu* %0, %struct.stu** %2, align 8
  %4 = load %struct.stu*, %struct.stu** %2, align 8
  store %struct.stu* %4, %struct.stu** %3, align 8
  br label %5

5:                                                ; preds = %8, %1
  %6 = load %struct.stu*, %struct.stu** %3, align 8
  %7 = icmp ne %struct.stu* %6, null
  br i1 %7, label %8, label %32

8:                                                ; preds = %5
  %9 = load %struct.stu*, %struct.stu** %3, align 8
  %10 = getelementptr inbounds %struct.stu, %struct.stu* %9, i32 0, i32 0
  %11 = getelementptr inbounds [9 x i8], [9 x i8]* %10, i64 0, i64 0
  %12 = load %struct.stu*, %struct.stu** %3, align 8
  %13 = getelementptr inbounds %struct.stu, %struct.stu* %12, i32 0, i32 1
  %14 = getelementptr inbounds [18 x i8], [18 x i8]* %13, i64 0, i64 0
  %15 = load %struct.stu*, %struct.stu** %3, align 8
  %16 = getelementptr inbounds %struct.stu, %struct.stu* %15, i32 0, i32 2
  %17 = getelementptr inbounds [2 x i8], [2 x i8]* %16, i64 0, i64 0
  %18 = load %struct.stu*, %struct.stu** %3, align 8
  %19 = getelementptr inbounds %struct.stu, %struct.stu* %18, i32 0, i32 3
  %20 = load i32, i32* %19, align 8
  %21 = load %struct.stu*, %struct.stu** %3, align 8
  %22 = getelementptr inbounds %struct.stu, %struct.stu* %21, i32 0, i32 4
  %23 = load float, float* %22, align 4
  %24 = fpext float %23 to double
  %25 = load %struct.stu*, %struct.stu** %3, align 8
  %26 = getelementptr inbounds %struct.stu, %struct.stu* %25, i32 0, i32 5
  %27 = getelementptr inbounds [12 x i8], [12 x i8]* %26, i64 0, i64 0
  %28 = call i32 (i8*, ...) @printf(i8* getelementptr inbounds ([19 x i8], [19 x i8]* @.str.2, i64 0, i64 0), i8* %11, i8* %14, i8* %17, i32 %20, double %24, i8* %27)
  %29 = load %struct.stu*, %struct.stu** %3, align 8
  %30 = getelementptr inbounds %struct.stu, %struct.stu* %29, i32 0, i32 6
  %31 = load %struct.stu*, %struct.stu** %30, align 8
  store %struct.stu* %31, %struct.stu** %3, align 8
  br label %5

32:                                               ; preds = %5
  ret void
}

declare dso_local i32 @printf(i8*, ...) #3

; Function Attrs: noinline nounwind uwtable
define dso_local void @destroy(%struct.stu* %0) #0 {
  %2 = alloca %struct.stu*, align 8
  %3 = alloca %struct.stu*, align 8
  store %struct.stu* %0, %struct.stu** %2, align 8
  br label %4

4:                                                ; preds = %7, %1
  %5 = load %struct.stu*, %struct.stu** %2, align 8
  %6 = icmp ne %struct.stu* %5, null
  br i1 %6, label %7, label %14

7:                                                ; preds = %4
  %8 = load %struct.stu*, %struct.stu** %2, align 8
  store %struct.stu* %8, %struct.stu** %3, align 8
  %9 = load %struct.stu*, %struct.stu** %3, align 8
  %10 = getelementptr inbounds %struct.stu, %struct.stu* %9, i32 0, i32 6
  %11 = load %struct.stu*, %struct.stu** %10, align 8
  store %struct.stu* %11, %struct.stu** %2, align 8
  %12 = load %struct.stu*, %struct.stu** %3, align 8
  %13 = bitcast %struct.stu* %12 to i8*
  call void @free(i8* %13) #5
  br label %4

14:                                               ; preds = %4
  ret void
}

; Function Attrs: nounwind
declare dso_local void @free(i8*) #2

; Function Attrs: noinline nounwind uwtable
define dso_local i32 @main() #0 {
  %1 = alloca i32, align 4
  %2 = alloca %struct.stu*, align 8
  store i32 0, i32* %1, align 4
  %3 = call %struct.stu* @create()
  store %struct.stu* %3, %struct.stu** %2, align 8
  %4 = load %struct.stu*, %struct.stu** %2, align 8
  call void @print(%struct.stu* %4)
  %5 = load %struct.stu*, %struct.stu** %2, align 8
  call void @destroy(%struct.stu* %5)
  ret i32 0
}


!llvm.module.flags = !{!0}
!llvm.ident = !{!1}

!0 = !{i32 1, !"wchar_size", i32 4}
!1 = !{!"clang version 10.0.0-4ubuntu1 "}
