; ModuleID = 'source-C-CXX/30/1318.c'
source_filename = "source-C-CXX/30/1318.c"
target datalayout = "e-m:e-p270:32:32-p271:32:32-p272:64:64-i64:64-f80:128-n8:16:32:64-S128"
target triple = "x86_64-pc-linux-gnu"

%struct.stu = type { [9 x i8], [18 x i8], [2 x i8], i32, float, [12 x i8], %struct.stu* }

@__const.create.end = private unnamed_addr constant [4 x i8] c"end\00", align 1
@.str = private unnamed_addr constant [3 x i8] c"%s\00", align 1
@.str.1 = private unnamed_addr constant [11 x i8] c"%s%s%d%f%s\00", align 1
@.str.2 = private unnamed_addr constant [19 x i8] c"%s %s %s %d %g %s\0A\00", align 1

; Function Attrs: nofree nounwind sspstrong uwtable
define dso_local %struct.stu* @create() local_unnamed_addr #0 {
  %1 = tail call noalias align 16 dereferenceable_or_null(100) i8* @malloc(i64 100) #6
  %2 = bitcast i8* %1 to %struct.stu*
  %3 = getelementptr inbounds %struct.stu, %struct.stu* %2, i64 0, i32 0, i64 0
  %4 = tail call i32 (i8*, ...) @__isoc99_scanf(i8* getelementptr inbounds ([3 x i8], [3 x i8]* @.str, i64 0, i64 0), i8* %3)
  %5 = tail call i32 @strcmp(i8* noundef nonnull dereferenceable(1) %3, i8* noundef nonnull dereferenceable(4) getelementptr inbounds ([4 x i8], [4 x i8]* @__const.create.end, i64 0, i64 0)) #7
  %6 = icmp eq i32 %5, 0
  br i1 %6, label %37, label %7

7:                                                ; preds = %0
  %8 = getelementptr inbounds %struct.stu, %struct.stu* %2, i64 0, i32 1, i64 0
  %9 = getelementptr inbounds %struct.stu, %struct.stu* %2, i64 0, i32 2, i64 0
  %10 = getelementptr inbounds %struct.stu, %struct.stu* %2, i64 0, i32 3
  %11 = getelementptr inbounds %struct.stu, %struct.stu* %2, i64 0, i32 4
  %12 = getelementptr inbounds %struct.stu, %struct.stu* %2, i64 0, i32 5, i64 0
  %13 = tail call i32 (i8*, ...) @__isoc99_scanf(i8* getelementptr inbounds ([11 x i8], [11 x i8]* @.str.1, i64 0, i64 0), i8* nonnull %8, i8* nonnull %9, i32* nonnull %10, float* nonnull %11, i8* nonnull %12)
  %14 = getelementptr inbounds %struct.stu, %struct.stu* %2, i64 0, i32 6
  store %struct.stu* null, %struct.stu** %14, align 8, !tbaa !5
  %15 = tail call noalias align 16 dereferenceable_or_null(100) i8* @malloc(i64 100) #6
  %16 = bitcast i8* %15 to %struct.stu*
  %17 = getelementptr inbounds %struct.stu, %struct.stu* %16, i64 0, i32 0, i64 0
  %18 = tail call i32 (i8*, ...) @__isoc99_scanf(i8* getelementptr inbounds ([3 x i8], [3 x i8]* @.str, i64 0, i64 0), i8* %17)
  %19 = tail call i32 @strcmp(i8* noundef nonnull dereferenceable(1) %17, i8* noundef nonnull dereferenceable(4) getelementptr inbounds ([4 x i8], [4 x i8]* @__const.create.end, i64 0, i64 0)) #7
  %20 = icmp eq i32 %19, 0
  br i1 %20, label %37, label %21

21:                                               ; preds = %7, %21
  %22 = phi %struct.stu* [ %32, %21 ], [ %16, %7 ]
  %23 = phi %struct.stu* [ %22, %21 ], [ %2, %7 ]
  %24 = getelementptr inbounds %struct.stu, %struct.stu* %22, i64 0, i32 1, i64 0
  %25 = getelementptr inbounds %struct.stu, %struct.stu* %22, i64 0, i32 2, i64 0
  %26 = getelementptr inbounds %struct.stu, %struct.stu* %22, i64 0, i32 3
  %27 = getelementptr inbounds %struct.stu, %struct.stu* %22, i64 0, i32 4
  %28 = getelementptr inbounds %struct.stu, %struct.stu* %22, i64 0, i32 5, i64 0
  %29 = tail call i32 (i8*, ...) @__isoc99_scanf(i8* getelementptr inbounds ([11 x i8], [11 x i8]* @.str.1, i64 0, i64 0), i8* nonnull %24, i8* nonnull %25, i32* nonnull %26, float* nonnull %27, i8* nonnull %28)
  %30 = getelementptr inbounds %struct.stu, %struct.stu* %22, i64 0, i32 6
  store %struct.stu* %23, %struct.stu** %30, align 8, !tbaa !5
  %31 = tail call noalias align 16 dereferenceable_or_null(100) i8* @malloc(i64 100) #6
  %32 = bitcast i8* %31 to %struct.stu*
  %33 = getelementptr inbounds %struct.stu, %struct.stu* %32, i64 0, i32 0, i64 0
  %34 = tail call i32 (i8*, ...) @__isoc99_scanf(i8* getelementptr inbounds ([3 x i8], [3 x i8]* @.str, i64 0, i64 0), i8* %33)
  %35 = tail call i32 @strcmp(i8* noundef nonnull dereferenceable(1) %33, i8* noundef nonnull dereferenceable(4) getelementptr inbounds ([4 x i8], [4 x i8]* @__const.create.end, i64 0, i64 0)) #7
  %36 = icmp eq i32 %35, 0
  br i1 %36, label %37, label %21

37:                                               ; preds = %21, %7, %0
  %38 = phi %struct.stu* [ %2, %0 ], [ %2, %7 ], [ %22, %21 ]
  ret %struct.stu* %38
}

; Function Attrs: inaccessiblememonly mustprogress nofree nounwind willreturn
declare noalias noundef align 16 i8* @malloc(i64 noundef) local_unnamed_addr #1

; Function Attrs: nofree nounwind
declare noundef i32 @__isoc99_scanf(i8* nocapture noundef readonly, ...) local_unnamed_addr #2

; Function Attrs: argmemonly mustprogress nofree nounwind readonly willreturn
declare i32 @strcmp(i8* nocapture, i8* nocapture) local_unnamed_addr #3

; Function Attrs: nofree nounwind sspstrong uwtable
define dso_local void @print(%struct.stu* %0) local_unnamed_addr #0 {
  %2 = icmp eq %struct.stu* %0, null
  br i1 %2, label %18, label %3

3:                                                ; preds = %1, %3
  %4 = phi %struct.stu* [ %16, %3 ], [ %0, %1 ]
  %5 = getelementptr inbounds %struct.stu, %struct.stu* %4, i64 0, i32 0, i64 0
  %6 = getelementptr inbounds %struct.stu, %struct.stu* %4, i64 0, i32 1, i64 0
  %7 = getelementptr inbounds %struct.stu, %struct.stu* %4, i64 0, i32 2, i64 0
  %8 = getelementptr inbounds %struct.stu, %struct.stu* %4, i64 0, i32 3
  %9 = load i32, i32* %8, align 8, !tbaa !12
  %10 = getelementptr inbounds %struct.stu, %struct.stu* %4, i64 0, i32 4
  %11 = load float, float* %10, align 4, !tbaa !13
  %12 = fpext float %11 to double
  %13 = getelementptr inbounds %struct.stu, %struct.stu* %4, i64 0, i32 5, i64 0
  %14 = tail call i32 (i8*, ...) @printf(i8* nonnull dereferenceable(1) getelementptr inbounds ([19 x i8], [19 x i8]* @.str.2, i64 0, i64 0), i8* nonnull %5, i8* nonnull %6, i8* nonnull %7, i32 %9, double %12, i8* nonnull %13)
  %15 = getelementptr inbounds %struct.stu, %struct.stu* %4, i64 0, i32 6
  %16 = load %struct.stu*, %struct.stu** %15, align 8, !tbaa !5
  %17 = icmp eq %struct.stu* %16, null
  br i1 %17, label %18, label %3, !llvm.loop !14

18:                                               ; preds = %3, %1
  ret void
}

; Function Attrs: nofree nounwind
declare noundef i32 @printf(i8* nocapture noundef readonly, ...) local_unnamed_addr #2

; Function Attrs: nounwind sspstrong uwtable
define dso_local void @destroy(%struct.stu* %0) local_unnamed_addr #4 {
  %2 = icmp eq %struct.stu* %0, null
  br i1 %2, label %9, label %3

3:                                                ; preds = %1, %3
  %4 = phi %struct.stu* [ %6, %3 ], [ %0, %1 ]
  %5 = getelementptr inbounds %struct.stu, %struct.stu* %4, i64 0, i32 6
  %6 = load %struct.stu*, %struct.stu** %5, align 8, !tbaa !5
  %7 = getelementptr %struct.stu, %struct.stu* %4, i64 0, i32 0, i64 0
  tail call void @free(i8* %7) #6
  %8 = icmp eq %struct.stu* %6, null
  br i1 %8, label %9, label %3, !llvm.loop !16

9:                                                ; preds = %3, %1
  ret void
}

; Function Attrs: inaccessiblemem_or_argmemonly mustprogress nounwind willreturn
declare void @free(i8* nocapture noundef) local_unnamed_addr #5

; Function Attrs: nounwind sspstrong uwtable
define dso_local i32 @main() local_unnamed_addr #4 {
  %1 = tail call %struct.stu* @create()
  %2 = icmp eq %struct.stu* %1, null
  br i1 %2, label %24, label %3

3:                                                ; preds = %0, %3
  %4 = phi %struct.stu* [ %16, %3 ], [ %1, %0 ]
  %5 = getelementptr inbounds %struct.stu, %struct.stu* %4, i64 0, i32 0, i64 0
  %6 = getelementptr inbounds %struct.stu, %struct.stu* %4, i64 0, i32 1, i64 0
  %7 = getelementptr inbounds %struct.stu, %struct.stu* %4, i64 0, i32 2, i64 0
  %8 = getelementptr inbounds %struct.stu, %struct.stu* %4, i64 0, i32 3
  %9 = load i32, i32* %8, align 8, !tbaa !12
  %10 = getelementptr inbounds %struct.stu, %struct.stu* %4, i64 0, i32 4
  %11 = load float, float* %10, align 4, !tbaa !13
  %12 = fpext float %11 to double
  %13 = getelementptr inbounds %struct.stu, %struct.stu* %4, i64 0, i32 5, i64 0
  %14 = tail call i32 (i8*, ...) @printf(i8* nonnull dereferenceable(1) getelementptr inbounds ([19 x i8], [19 x i8]* @.str.2, i64 0, i64 0), i8* nonnull %5, i8* nonnull %6, i8* nonnull %7, i32 %9, double %12, i8* nonnull %13) #6
  %15 = getelementptr inbounds %struct.stu, %struct.stu* %4, i64 0, i32 6
  %16 = load %struct.stu*, %struct.stu** %15, align 8, !tbaa !5
  %17 = icmp eq %struct.stu* %16, null
  br i1 %17, label %18, label %3, !llvm.loop !14

18:                                               ; preds = %3, %18
  %19 = phi %struct.stu* [ %21, %18 ], [ %1, %3 ]
  %20 = getelementptr inbounds %struct.stu, %struct.stu* %19, i64 0, i32 6
  %21 = load %struct.stu*, %struct.stu** %20, align 8, !tbaa !5
  %22 = getelementptr %struct.stu, %struct.stu* %19, i64 0, i32 0, i64 0
  tail call void @free(i8* %22) #6
  %23 = icmp eq %struct.stu* %21, null
  br i1 %23, label %24, label %18, !llvm.loop !16

24:                                               ; preds = %18, %0
  ret i32 0
}


!llvm.module.flags = !{!0, !1, !2, !3}
!llvm.ident = !{!4}

!0 = !{i32 1, !"wchar_size", i32 4}
!1 = !{i32 7, !"PIC Level", i32 2}
!2 = !{i32 7, !"PIE Level", i32 2}
!3 = !{i32 7, !"uwtable", i32 1}
!4 = !{!"clang version 13.0.0"}
!5 = !{!6, !11, i64 56}
!6 = !{!"stu", !7, i64 0, !7, i64 9, !7, i64 27, !9, i64 32, !10, i64 36, !7, i64 40, !11, i64 56}
!7 = !{!"omnipotent char", !8, i64 0}
!8 = !{!"Simple C/C++ TBAA"}
!9 = !{!"int", !7, i64 0}
!10 = !{!"float", !7, i64 0}
!11 = !{!"any pointer", !7, i64 0}
!12 = !{!6, !9, i64 32}
!13 = !{!6, !10, i64 36}
!14 = distinct !{!14, !15}
!15 = !{!"llvm.loop.mustprogress"}
!16 = distinct !{!16, !15}
